target datalayout = "e-m:e-p270:32:32-p271:32:32-p272:64:64-i64:64-i128:128-f80:128-n8:16:32:64-S128"
target triple = "x86_64-unknown-linux-gnu"

%struct.timeval = type { i64, i64 }

@trace_events_enabled_count = external global i32, align 4
@_TRACE_NBD_UNKNOWN_ERROR_DSTATE = external global i16, align 2
@message_with_timestamp = external global i8, align 1
@.str.58 = private unnamed_addr constant [72 x i8] c"%d@%zu.%06zu:nbd_unknown_error Squashing unexpected error %d to EINVAL\0A\00", align 1
@.str.59 = private unnamed_addr constant [59 x i8] c"nbd_unknown_error Squashing unexpected error %d to EINVAL\0A\00", align 1
@qemu_loglevel = external global i32, align 4

; Function Attrs: nounwind sspstrong uwtable
define internal zeroext i1 @qemu_loglevel_mask(i32 noundef %mask) #0 {
entry:
  %mask.addr = alloca i32, align 4
  store i32 %mask, ptr %mask.addr, align 4
  %0 = load i32, ptr @qemu_loglevel, align 4
  %1 = load i32, ptr %mask.addr, align 4
  %and = and i32 %0, %1
  %cmp = icmp ne i32 %and, 0
  ret i1 %cmp
}

; Function Attrs: nounwind sspstrong uwtable
define internal void @_nocheck__trace_nbd_unknown_error(i32 noundef %err) #0 {
entry:
  %err.addr = alloca i32, align 4
  %_now = alloca %struct.timeval, align 8
  store i32 %err, ptr %err.addr, align 4
  %0 = load i32, ptr @trace_events_enabled_count, align 4
  %tobool = icmp ne i32 %0, 0
  %lnot = xor i1 %tobool, true
  %lnot1 = xor i1 %lnot, true
  %lnot.ext = zext i1 %lnot1 to i32
  %conv = sext i32 %lnot.ext to i64
  %tobool2 = icmp ne i64 %conv, 0
  br i1 %tobool2, label %land.lhs.true, label %if.end11

land.lhs.true:                                    ; preds = %entry
  %1 = load i16, ptr @_TRACE_NBD_UNKNOWN_ERROR_DSTATE, align 2
  %conv3 = zext i16 %1 to i32
  %tobool4 = icmp ne i32 %conv3, 0
  br i1 %tobool4, label %land.lhs.true5, label %if.end11

land.lhs.true5:                                   ; preds = %land.lhs.true
  %call = call zeroext i1 @qemu_loglevel_mask(i32 noundef 32768)
  br i1 %call, label %if.then, label %if.end11

if.then:                                          ; preds = %land.lhs.true5
  %2 = load i8, ptr @message_with_timestamp, align 1
  %tobool7 = trunc i8 %2 to i1
  br i1 %tobool7, label %if.then8, label %if.else

if.then8:                                         ; preds = %if.then
  %call9 = call i32 @gettimeofday(ptr noundef %_now, ptr noundef null) #5
  %call10 = call i32 @qemu_get_thread_id()
  %tv_sec = getelementptr inbounds %struct.timeval, ptr %_now, i32 0, i32 0
  %3 = load i64, ptr %tv_sec, align 8
  %tv_usec = getelementptr inbounds %struct.timeval, ptr %_now, i32 0, i32 1
  %4 = load i64, ptr %tv_usec, align 8
  %5 = load i32, ptr %err.addr, align 4
  call void (ptr, ...) @qemu_log(ptr noundef @.str.58, i32 noundef %call10, i64 noundef %3, i64 noundef %4, i32 noundef %5)
  br label %if.end

if.else:                                          ; preds = %if.then
  %6 = load i32, ptr %err.addr, align 4
  call void (ptr, ...) @qemu_log(ptr noundef @.str.59, i32 noundef %6)
  br label %if.end

if.end:                                           ; preds = %if.else, %if.then8
  br label %if.end11

if.end11:                                         ; preds = %if.end, %land.lhs.true5, %land.lhs.true, %entry
  ret void
}

; Function Attrs: nounwind sspstrong uwtable
define internal void @trace_nbd_unknown_error(i32 noundef %err) #0 {
entry:
  %err.addr = alloca i32, align 4
  store i32 %err, ptr %err.addr, align 4
  %0 = load i32, ptr %err.addr, align 4
  call void @_nocheck__trace_nbd_unknown_error(i32 noundef %0)
  ret void
}

; Function Attrs: nounwind sspstrong uwtable
define dso_local i32 @nbd_errno_to_system_errno(i32 noundef %err) #0 {
entry:
  %err.addr = alloca i32, align 4
  %ret = alloca i32, align 4
  store i32 %err, ptr %err.addr, align 4
  %0 = load i32, ptr %err.addr, align 4
  switch i32 %0, label %sw.default [
    i32 0, label %sw.bb
    i32 1, label %sw.bb1
    i32 5, label %sw.bb2
    i32 12, label %sw.bb3
    i32 28, label %sw.bb4
    i32 75, label %sw.bb5
    i32 95, label %sw.bb6
    i32 108, label %sw.bb7
    i32 22, label %sw.bb8
  ]

sw.bb:                                            ; preds = %entry
  store i32 0, ptr %ret, align 4
  br label %sw.epilog

sw.bb1:                                           ; preds = %entry
  store i32 1, ptr %ret, align 4
  br label %sw.epilog

sw.bb2:                                           ; preds = %entry
  store i32 5, ptr %ret, align 4
  br label %sw.epilog

sw.bb3:                                           ; preds = %entry
  store i32 12, ptr %ret, align 4
  br label %sw.epilog

sw.bb4:                                           ; preds = %entry
  store i32 28, ptr %ret, align 4
  br label %sw.epilog

sw.bb5:                                           ; preds = %entry
  store i32 75, ptr %ret, align 4
  br label %sw.epilog

sw.bb6:                                           ; preds = %entry
  store i32 95, ptr %ret, align 4
  br label %sw.epilog

sw.bb7:                                           ; preds = %entry
  store i32 108, ptr %ret, align 4
  br label %sw.epilog

sw.default:                                       ; preds = %entry
  %1 = load i32, ptr %err.addr, align 4
  call void @trace_nbd_unknown_error(i32 noundef %1)
  br label %sw.bb8

sw.bb8:                                           ; preds = %sw.default, %entry
  store i32 22, ptr %ret, align 4
  br label %sw.epilog

sw.epilog:                                        ; preds = %sw.bb8, %sw.bb7, %sw.bb6, %sw.bb5, %sw.bb4, %sw.bb3, %sw.bb2, %sw.bb1, %sw.bb
  %2 = load i32, ptr %ret, align 4
  ret i32 %2
}