; Function Attrs: nounwind sspstrong uwtable
define dso_local range(i32 0, 109) i32 @nbd_errno_to_system_errno(i32 noundef %err) local_unnamed_addr #0 {
entry:
  %_now.i.i = alloca %struct.timeval, align 8
  switch i32 %err, label %sw.default [
    i32 0, label %sw.epilog
    i32 1, label %sw.epilog
    i32 5, label %sw.epilog
    i32 12, label %sw.epilog
    i32 28, label %sw.epilog
    i32 75, label %sw.epilog
    i32 95, label %sw.epilog
    i32 108, label %sw.epilog
    i32 22, label %sw.bb8
  ]

sw.default:                                       ; preds = %entry
  call void @llvm.lifetime.start.p0(i64 16, ptr nonnull %_now.i.i)
  %0 = load i32, ptr @trace_events_enabled_count, align 4
  %tobool.i.i = icmp ne i32 %0, 0
  %1 = load i16, ptr @_TRACE_NBD_UNKNOWN_ERROR_DSTATE, align 2
  %tobool4.i.i = icmp ne i16 %1, 0
  %or.cond.i.i = select i1 %tobool.i.i, i1 %tobool4.i.i, i1 false
  br i1 %or.cond.i.i, label %land.lhs.true5.i.i, label %trace_nbd_unknown_error.exit

land.lhs.true5.i.i:                               ; preds = %sw.default
  %2 = load i32, ptr @qemu_loglevel, align 4
  %and.i.i.i = and i32 %2, 32768
  %cmp.i.not.i.i = icmp eq i32 %and.i.i.i, 0
  br i1 %cmp.i.not.i.i, label %trace_nbd_unknown_error.exit, label %if.then.i.i

if.then.i.i:                                      ; preds = %land.lhs.true5.i.i
  %3 = load i8, ptr @message_with_timestamp, align 1
  %tobool7.i.i = trunc i8 %3 to i1
  br i1 %tobool7.i.i, label %if.then8.i.i, label %if.else.i.i

if.then8.i.i:                                     ; preds = %if.then.i.i
  %call9.i.i = call i32 @gettimeofday(ptr noundef nonnull %_now.i.i, ptr noundef null) #8
  %call10.i.i = tail call i32 @qemu_get_thread_id() #8
  %4 = load i64, ptr %_now.i.i, align 8
  %tv_usec.i.i = getelementptr inbounds nuw i8, ptr %_now.i.i, i64 8
  %5 = load i64, ptr %tv_usec.i.i, align 8
  tail call void (ptr, ...) @qemu_log(ptr noundef nonnull @.str.58, i32 noundef %call10.i.i, i64 noundef %4, i64 noundef %5, i32 noundef %err) #8
  br label %trace_nbd_unknown_error.exit

if.else.i.i:                                      ; preds = %if.then.i.i
  tail call void (ptr, ...) @qemu_log(ptr noundef nonnull @.str.59, i32 noundef %err) #8
  br label %trace_nbd_unknown_error.exit

trace_nbd_unknown_error.exit:                     ; preds = %sw.default, %land.lhs.true5.i.i, %if.then8.i.i, %if.else.i.i
  call void @llvm.lifetime.end.p0(i64 16, ptr nonnull %_now.i.i)
  br label %sw.bb8

sw.bb8:                                           ; preds = %trace_nbd_unknown_error.exit, %entry
  br label %sw.epilog

sw.epilog:                                        ; preds = %entry, %entry, %entry, %entry, %entry, %entry, %entry, %entry, %sw.bb8
  %ret.0 = phi i32 [ 22, %sw.bb8 ], [ %err, %entry ], [ %err, %entry ], [ %err, %entry ], [ %err, %entry ], [ %err, %entry ], [ %err, %entry ], [ %err, %entry ], [ %err, %entry ]
  ret i32 %ret.0
}